target datalayout = "e-m:e-p270:32:32-p271:32:32-p272:64:64-i64:64-i128:128-f80:128-n8:16:32:64-S128"
target triple = "x86_64-unknown-linux-gnu"

; Function Attrs: inlinehint mustprogress nounwind uwtable
define linkonce_odr noundef nonnull align 8 dereferenceable(8) ptr @_ZSt3maxIdERKT_S2_S2_(ptr noundef nonnull align 8 dereferenceable(8) %__a, ptr noundef nonnull align 8 dereferenceable(8) %__b) #5 comdat {
entry:
  %retval = alloca ptr, align 8
  %__a.addr = alloca ptr, align 8
  %__b.addr = alloca ptr, align 8
  store ptr %__a, ptr %__a.addr, align 8, !tbaa !3
  store ptr %__b, ptr %__b.addr, align 8, !tbaa !3
  %0 = load ptr, ptr %__a.addr, align 8, !tbaa !3
  %1 = load double, ptr %0, align 8, !tbaa !14
  %2 = load ptr, ptr %__b.addr, align 8, !tbaa !3
  %3 = load double, ptr %2, align 8, !tbaa !14
  %cmp = fcmp olt double %1, %3
  br i1 %cmp, label %if.then, label %if.end

if.then:                                          ; preds = %entry
  %4 = load ptr, ptr %__b.addr, align 8, !tbaa !3
  store ptr %4, ptr %retval, align 8
  br label %return

if.end:                                           ; preds = %entry
  %5 = load ptr, ptr %__a.addr, align 8, !tbaa !3
  store ptr %5, ptr %retval, align 8
  br label %return

return:                                           ; preds = %if.end, %if.then
  %6 = load ptr, ptr %retval, align 8
  ret ptr %6
}

; Function Attrs: mustprogress uwtable
define noundef double @_ZNK8QuantLib28SurvivalProbabilityStructure18defaultDensityImplEd(ptr noundef nonnull align 8 dereferenceable(152) %this, double noundef %t) unnamed_addr #9 align 2 {
entry:
  %this.addr = alloca ptr, align 8
  %t.addr = alloca double, align 8
  %dt = alloca double, align 8
  %t1 = alloca double, align 8
  %ref.tmp = alloca double, align 8
  %ref.tmp2 = alloca double, align 8
  %t2 = alloca double, align 8
  %p1 = alloca double, align 8
  %p2 = alloca double, align 8
  store ptr %this, ptr %this.addr, align 8, !tbaa !3
  store double %t, ptr %t.addr, align 8, !tbaa !14
  %this1 = load ptr, ptr %this.addr, align 8
  call void @llvm.lifetime.start.p0(i64 8, ptr %dt) #19
  store double 1.000000e-04, ptr %dt, align 8, !tbaa !14
  call void @llvm.lifetime.start.p0(i64 8, ptr %t1) #19
  call void @llvm.lifetime.start.p0(i64 8, ptr %ref.tmp) #19
  %0 = load double, ptr %t.addr, align 8, !tbaa !14
  %1 = load double, ptr %dt, align 8, !tbaa !14
  %sub = fsub double %0, %1
  store double %sub, ptr %ref.tmp, align 8, !tbaa !14
  call void @llvm.lifetime.start.p0(i64 8, ptr %ref.tmp2) #19
  store double 0.000000e+00, ptr %ref.tmp2, align 8, !tbaa !14
  %call = call noundef nonnull align 8 dereferenceable(8) ptr @_ZSt3maxIdERKT_S2_S2_(ptr noundef nonnull align 8 dereferenceable(8) %ref.tmp, ptr noundef nonnull align 8 dereferenceable(8) %ref.tmp2)
  %2 = load double, ptr %call, align 8, !tbaa !14
  call void @llvm.lifetime.end.p0(i64 8, ptr %ref.tmp2) #19
  call void @llvm.lifetime.end.p0(i64 8, ptr %ref.tmp) #19
  store double %2, ptr %t1, align 8, !tbaa !14
  call void @llvm.lifetime.start.p0(i64 8, ptr %t2) #19
  %3 = load double, ptr %t.addr, align 8, !tbaa !14
  %4 = load double, ptr %dt, align 8, !tbaa !14
  %add = fadd double %3, %4
  store double %add, ptr %t2, align 8, !tbaa !14
  call void @llvm.lifetime.start.p0(i64 8, ptr %p1) #19
  %5 = load double, ptr %t1, align 8, !tbaa !14
  %vtable = load ptr, ptr %this1, align 8, !tbaa !7
  %vfn = getelementptr inbounds ptr, ptr %vtable, i64 9
  %6 = load ptr, ptr %vfn, align 8
  %call3 = call noundef double %6(ptr noundef nonnull align 8 dereferenceable(152) %this1, double noundef %5)
  store double %call3, ptr %p1, align 8, !tbaa !14
  call void @llvm.lifetime.start.p0(i64 8, ptr %p2) #19
  %7 = load double, ptr %t2, align 8, !tbaa !14
  %vtable4 = load ptr, ptr %this1, align 8, !tbaa !7
  %vfn5 = getelementptr inbounds ptr, ptr %vtable4, i64 9
  %8 = load ptr, ptr %vfn5, align 8
  %call6 = call noundef double %8(ptr noundef nonnull align 8 dereferenceable(152) %this1, double noundef %7)
  store double %call6, ptr %p2, align 8, !tbaa !14
  %9 = load double, ptr %p1, align 8, !tbaa !14
  %10 = load double, ptr %p2, align 8, !tbaa !14
  %sub7 = fsub double %9, %10
  %11 = load double, ptr %t2, align 8, !tbaa !14
  %12 = load double, ptr %t1, align 8, !tbaa !14
  %sub8 = fsub double %11, %12
  %div = fdiv double %sub7, %sub8
  call void @llvm.lifetime.end.p0(i64 8, ptr %p2) #19
  call void @llvm.lifetime.end.p0(i64 8, ptr %p1) #19
  call void @llvm.lifetime.end.p0(i64 8, ptr %t2) #19
  call void @llvm.lifetime.end.p0(i64 8, ptr %t1) #19
  call void @llvm.lifetime.end.p0(i64 8, ptr %dt) #19
  ret double %div
}