; Function Attrs: mustprogress uwtable
define noundef double @_ZNK8QuantLib28SurvivalProbabilityStructure18defaultDensityImplEd(ptr noundef nonnull align 8 dereferenceable(152) %this, double noundef %t) unnamed_addr #8 align 2 {
entry:
  %sub = fadd double %t, -1.000000e-04
  %cmp.i = fcmp olt double %sub, 0.000000e+00
  %.sroa.speculated = select i1 %cmp.i, double 0.000000e+00, double %sub
  %add = fadd double %t, 1.000000e-04
  %vtable = load ptr, ptr %this, align 8, !tbaa !10
  %vfn = getelementptr inbounds i8, ptr %vtable, i64 72
  %0 = load ptr, ptr %vfn, align 8
  %call3 = tail call noundef double %0(ptr noundef nonnull align 8 dereferenceable(152) %this, double noundef %.sroa.speculated)
  %vtable4 = load ptr, ptr %this, align 8, !tbaa !10
  %vfn5 = getelementptr inbounds i8, ptr %vtable4, i64 72
  %1 = load ptr, ptr %vfn5, align 8
  %call6 = tail call noundef double %1(ptr noundef nonnull align 8 dereferenceable(152) %this, double noundef %add)
  %sub7 = fsub double %call3, %call6
  %sub8 = fsub double %add, %.sroa.speculated
  %div = fdiv double %sub7, %sub8
  ret double %div
}